; Function Attrs: nounwind uwtable
define internal ptr @get_file_descriptor(ptr readnone captures(none) %0, ptr noundef %1) #0 {
  %3 = tail call i32 @PyObject_AsFileDescriptor(ptr noundef %1) #2
  %4 = icmp slt i32 %3, 0
  br i1 %4, label %8, label %5

5:                                                ; preds = %2
  %6 = zext nneg i32 %3 to i64
  %7 = tail call ptr @PyLong_FromLong(i64 noundef %6) #2
  br label %8

8:                                                ; preds = %2, %5
  %.0 = phi ptr [ null, %2 ], [ %7, %5 ]
  ret ptr %.0
}